target datalayout = "e-m:e-p270:32:32-p271:32:32-p272:64:64-i64:64-i128:128-f80:128-n8:16:32:64-S128"
target triple = "x86_64-pc-linux-gnu"

%struct.parse_blocks_t = type { ptr, i64, i64, i64 }
%struct.case_infos_t = type { ptr, i64, i64, i64 }
%struct.parse_prog = type { ptr, i32, i32, i32, ptr, %struct.parse_blocks_t, ptr, ptr }
%struct.parse_block = type { i32, ptr, %struct.case_infos_t, %struct.case_infos_t }
%struct.case_info = type { i32, ptr, i32, ptr }

; Function Attrs: inlinehint nounwind uwtable
define internal void @parse_blocks_noop_(ptr noundef byval(%struct.parse_block) align 8 %0) #6 {
  ret void
}

; Function Attrs: inlinehint nounwind uwtable
define internal void @free_case_info(ptr noundef byval(%struct.case_info) align 8 %0) #6 {
  %2 = getelementptr inbounds nuw %struct.case_info, ptr %0, i32 0, i32 1
  %3 = load ptr, ptr %2, align 8, !tbaa !34
  call void @free(ptr noundef %3) #12
  %4 = getelementptr inbounds nuw %struct.case_info, ptr %0, i32 0, i32 3
  %5 = load ptr, ptr %4, align 8, !tbaa !36
  call void @free(ptr noundef %5) #12
  ret void
}

; Function Attrs: inlinehint nounwind uwtable
define internal void @case_infos_get(ptr dead_on_unwind noalias writable sret(%struct.case_info) align 8 %0, ptr noundef %1, i64 noundef %2) #6 {
  %4 = alloca ptr, align 8
  %5 = alloca i64, align 8
  store ptr %1, ptr %4, align 8, !tbaa !10
  store i64 %2, ptr %5, align 8, !tbaa !22
  %6 = load ptr, ptr %4, align 8, !tbaa !10
  %7 = getelementptr inbounds nuw %struct.case_infos_t, ptr %6, i32 0, i32 0
  %8 = load ptr, ptr %7, align 8, !tbaa !46
  %9 = load ptr, ptr %4, align 8, !tbaa !10
  %10 = getelementptr inbounds nuw %struct.case_infos_t, ptr %9, i32 0, i32 1
  %11 = load i64, ptr %10, align 8, !tbaa !47
  %12 = load i64, ptr %5, align 8, !tbaa !22
  %13 = add i64 %11, %12
  %14 = load ptr, ptr %4, align 8, !tbaa !10
  %15 = getelementptr inbounds nuw %struct.case_infos_t, ptr %14, i32 0, i32 3
  %16 = load i64, ptr %15, align 8, !tbaa !45
  %17 = urem i64 %13, %16
  %18 = getelementptr inbounds nuw %struct.case_info, ptr %8, i64 %17
  call void @llvm.memcpy.p0.p0.i64(ptr align 8 %0, ptr align 8 %18, i64 32, i1 false), !tbaa.struct !49
  ret void
}

; Function Attrs: inlinehint nounwind uwtable
define internal void @parse_blocks_clear(ptr noundef %0) #6 {
  %2 = alloca ptr, align 8
  %3 = alloca i64, align 8
  %4 = alloca %struct.parse_block, align 8
  store ptr %0, ptr %2, align 8, !tbaa !10
  call void @llvm.lifetime.start.p0(i64 8, ptr %3) #12
  store i64 0, ptr %3, align 8, !tbaa !22
  br label %5

5:                                                ; preds = %18, %1
  %6 = load i64, ptr %3, align 8, !tbaa !22
  %7 = load ptr, ptr %2, align 8, !tbaa !10
  %8 = getelementptr inbounds nuw %struct.parse_blocks_t, ptr %7, i32 0, i32 2
  %9 = load i64, ptr %8, align 8, !tbaa !44
  %10 = icmp ult i64 %6, %9
  br i1 %10, label %12, label %11

11:                                               ; preds = %5
  call void @llvm.lifetime.end.p0(i64 8, ptr %3) #12
  br label %21

12:                                               ; preds = %5
  %13 = load ptr, ptr %2, align 8, !tbaa !10
  %14 = load i64, ptr %3, align 8, !tbaa !22
  call void @parse_blocks_get(ptr dead_on_unwind writable sret(%struct.parse_block) align 8 %4, ptr noundef %13, i64 noundef %14)
  call void @parse_blocks_noop_(ptr noundef byval(%struct.parse_block) align 8 %4)
  br label %15

15:                                               ; preds = %12
  br label %16

16:                                               ; preds = %15
  br label %17

17:                                               ; preds = %16
  br label %18

18:                                               ; preds = %17
  %19 = load i64, ptr %3, align 8, !tbaa !22
  %20 = add i64 %19, 1
  store i64 %20, ptr %3, align 8, !tbaa !22
  br label %5, !llvm.loop !51

21:                                               ; preds = %11
  %22 = load ptr, ptr %2, align 8, !tbaa !10
  %23 = getelementptr inbounds nuw %struct.parse_blocks_t, ptr %22, i32 0, i32 2
  store i64 0, ptr %23, align 8, !tbaa !44
  %24 = load ptr, ptr %2, align 8, !tbaa !10
  %25 = getelementptr inbounds nuw %struct.parse_blocks_t, ptr %24, i32 0, i32 1
  store i64 0, ptr %25, align 8, !tbaa !47
  ret void
}

; Function Attrs: inlinehint nounwind uwtable
define internal void @case_infos_clear(ptr noundef %0) #6 {
  %2 = alloca ptr, align 8
  %3 = alloca i64, align 8
  %4 = alloca %struct.case_info, align 8
  store ptr %0, ptr %2, align 8, !tbaa !10
  call void @llvm.lifetime.start.p0(i64 8, ptr %3) #12
  store i64 0, ptr %3, align 8, !tbaa !22
  br label %5

5:                                                ; preds = %18, %1
  %6 = load i64, ptr %3, align 8, !tbaa !22
  %7 = load ptr, ptr %2, align 8, !tbaa !10
  %8 = getelementptr inbounds nuw %struct.case_infos_t, ptr %7, i32 0, i32 2
  %9 = load i64, ptr %8, align 8, !tbaa !44
  %10 = icmp ult i64 %6, %9
  br i1 %10, label %12, label %11

11:                                               ; preds = %5
  call void @llvm.lifetime.end.p0(i64 8, ptr %3) #12
  br label %21

12:                                               ; preds = %5
  %13 = load ptr, ptr %2, align 8, !tbaa !10
  %14 = load i64, ptr %3, align 8, !tbaa !22
  call void @case_infos_get(ptr dead_on_unwind writable sret(%struct.case_info) align 8 %4, ptr noundef %13, i64 noundef %14)
  call void @free_case_info(ptr noundef byval(%struct.case_info) align 8 %4)
  br label %15

15:                                               ; preds = %12
  br label %16

16:                                               ; preds = %15
  br label %17

17:                                               ; preds = %16
  br label %18

18:                                               ; preds = %17
  %19 = load i64, ptr %3, align 8, !tbaa !22
  %20 = add i64 %19, 1
  store i64 %20, ptr %3, align 8, !tbaa !22
  br label %5, !llvm.loop !50

21:                                               ; preds = %11
  %22 = load ptr, ptr %2, align 8, !tbaa !10
  %23 = getelementptr inbounds nuw %struct.case_infos_t, ptr %22, i32 0, i32 2
  store i64 0, ptr %23, align 8, !tbaa !44
  %24 = load ptr, ptr %2, align 8, !tbaa !10
  %25 = getelementptr inbounds nuw %struct.case_infos_t, ptr %24, i32 0, i32 1
  store i64 0, ptr %25, align 8, !tbaa !47
  ret void
}

; Function Attrs: inlinehint nounwind uwtable
define internal void @parse_blocks_free(ptr noundef %0) #6 {
  %2 = alloca ptr, align 8
  store ptr %0, ptr %2, align 8, !tbaa !10
  %3 = load ptr, ptr %2, align 8, !tbaa !10
  call void @parse_blocks_clear(ptr noundef %3)
  %4 = load ptr, ptr %2, align 8, !tbaa !10
  %5 = getelementptr inbounds nuw %struct.parse_blocks_t, ptr %4, i32 0, i32 0
  %6 = load ptr, ptr %5, align 8, !tbaa !46
  call void @free(ptr noundef %6) #12
  %7 = load ptr, ptr %2, align 8, !tbaa !10
  call void @llvm.memset.p0.i64(ptr align 8 %7, i8 0, i64 32, i1 false)
  ret void
}

; Function Attrs: inlinehint nounwind uwtable
define internal void @case_infos_free(ptr noundef %0) #6 {
  %2 = alloca ptr, align 8
  store ptr %0, ptr %2, align 8, !tbaa !10
  %3 = load ptr, ptr %2, align 8, !tbaa !10
  call void @case_infos_clear(ptr noundef %3)
  %4 = load ptr, ptr %2, align 8, !tbaa !10
  %5 = getelementptr inbounds nuw %struct.case_infos_t, ptr %4, i32 0, i32 0
  %6 = load ptr, ptr %5, align 8, !tbaa !46
  call void @free(ptr noundef %6) #12
  %7 = load ptr, ptr %2, align 8, !tbaa !10
  call void @llvm.memset.p0.i64(ptr align 8 %7, i8 0, i64 32, i1 false)
  ret void
}

; Function Attrs: inlinehint nounwind uwtable
define internal void @parse_blocks_get(ptr dead_on_unwind noalias writable sret(%struct.parse_block) align 8 %0, ptr noundef %1, i64 noundef %2) #6 {
  %4 = alloca ptr, align 8
  %5 = alloca i64, align 8
  store ptr %1, ptr %4, align 8, !tbaa !10
  store i64 %2, ptr %5, align 8, !tbaa !22
  %6 = load ptr, ptr %4, align 8, !tbaa !10
  %7 = getelementptr inbounds nuw %struct.parse_blocks_t, ptr %6, i32 0, i32 0
  %8 = load ptr, ptr %7, align 8, !tbaa !46
  %9 = load ptr, ptr %4, align 8, !tbaa !10
  %10 = getelementptr inbounds nuw %struct.parse_blocks_t, ptr %9, i32 0, i32 1
  %11 = load i64, ptr %10, align 8, !tbaa !47
  %12 = load i64, ptr %5, align 8, !tbaa !22
  %13 = add i64 %11, %12
  %14 = load ptr, ptr %4, align 8, !tbaa !10
  %15 = getelementptr inbounds nuw %struct.parse_blocks_t, ptr %14, i32 0, i32 3
  %16 = load i64, ptr %15, align 8, !tbaa !45
  %17 = urem i64 %13, %16
  %18 = getelementptr inbounds nuw %struct.parse_block, ptr %8, i64 %17
  call void @llvm.memcpy.p0.p0.i64(ptr align 8 %0, ptr align 8 %18, i64 80, i1 false), !tbaa.struct !48
  ret void
}

; Function Attrs: inlinehint nounwind uwtable
define internal i64 @parse_blocks_size(ptr noundef %0) #6 {
  %2 = alloca ptr, align 8
  store ptr %0, ptr %2, align 8, !tbaa !10
  %3 = load ptr, ptr %2, align 8, !tbaa !10
  %4 = getelementptr inbounds nuw %struct.parse_blocks_t, ptr %3, i32 0, i32 2
  %5 = load i64, ptr %4, align 8, !tbaa !44
  ret i64 %5
}

; Function Attrs: nounwind uwtable
define internal void @freeBlocks(ptr noundef %0) #0 {
  %2 = alloca ptr, align 8
  %3 = alloca i64, align 8
  %4 = alloca %struct.parse_block, align 8
  store ptr %0, ptr %2, align 8, !tbaa !10
  call void @llvm.lifetime.start.p0(i64 8, ptr %3) #12
  store i64 0, ptr %3, align 8, !tbaa !22
  br label %5

5:                                                ; preds = %18, %1
  %6 = load i64, ptr %3, align 8, !tbaa !22
  %7 = load ptr, ptr %2, align 8, !tbaa !10
  %8 = call i64 @parse_blocks_size(ptr noundef %7)
  %9 = icmp ult i64 %6, %8
  br i1 %9, label %11, label %10

10:                                               ; preds = %5
  call void @llvm.lifetime.end.p0(i64 8, ptr %3) #12
  br label %21

11:                                               ; preds = %5
  call void @llvm.lifetime.start.p0(i64 80, ptr %4) #12
  %12 = load ptr, ptr %2, align 8, !tbaa !10
  %13 = load i64, ptr %3, align 8, !tbaa !22
  call void @parse_blocks_get(ptr dead_on_unwind writable sret(%struct.parse_block) align 8 %4, ptr noundef %12, i64 noundef %13)
  %14 = getelementptr inbounds nuw %struct.parse_block, ptr %4, i32 0, i32 1
  %15 = load ptr, ptr %14, align 8, !tbaa !31
  call void @free(ptr noundef %15) #12
  %16 = getelementptr inbounds nuw %struct.parse_block, ptr %4, i32 0, i32 2
  call void @case_infos_free(ptr noundef %16)
  %17 = getelementptr inbounds nuw %struct.parse_block, ptr %4, i32 0, i32 3
  call void @case_infos_free(ptr noundef %17)
  call void @llvm.lifetime.end.p0(i64 80, ptr %4) #12
  br label %18

18:                                               ; preds = %11
  %19 = load i64, ptr %3, align 8, !tbaa !22
  %20 = add i64 %19, 1
  store i64 %20, ptr %3, align 8, !tbaa !22
  br label %5, !llvm.loop !40

21:                                               ; preds = %10
  %22 = load ptr, ptr %2, align 8, !tbaa !10
  call void @parse_blocks_free(ptr noundef %22)
  ret void
}

; Function Attrs: nounwind uwtable
define void @freeParseProg(ptr noundef %0) #0 {
  %2 = alloca ptr, align 8
  store ptr %0, ptr %2, align 8, !tbaa !10
  %3 = load ptr, ptr %2, align 8, !tbaa !10
  %4 = icmp ne ptr %3, null
  br i1 %4, label %6, label %5

5:                                                ; preds = %1
  br label %19

6:                                                ; preds = %1
  %7 = load ptr, ptr %2, align 8, !tbaa !10
  %8 = getelementptr inbounds nuw %struct.parse_prog, ptr %7, i32 0, i32 4
  %9 = load ptr, ptr %8, align 8, !tbaa !37
  call void @free(ptr noundef %9) #12
  %10 = load ptr, ptr %2, align 8, !tbaa !10
  %11 = getelementptr inbounds nuw %struct.parse_prog, ptr %10, i32 0, i32 5
  call void @freeBlocks(ptr noundef %11)
  %12 = load ptr, ptr %2, align 8, !tbaa !10
  %13 = getelementptr inbounds nuw %struct.parse_prog, ptr %12, i32 0, i32 6
  %14 = load ptr, ptr %13, align 8, !tbaa !38
  call void @free(ptr noundef %14) #12
  %15 = load ptr, ptr %2, align 8, !tbaa !10
  %16 = getelementptr inbounds nuw %struct.parse_prog, ptr %15, i32 0, i32 7
  %17 = load ptr, ptr %16, align 8, !tbaa !39
  call void @free(ptr noundef %17) #12
  %18 = load ptr, ptr %2, align 8, !tbaa !10
  call void @free(ptr noundef %18) #12
  br label %19

19:                                               ; preds = %6, %5
  ret void
}