; Function Attrs: nounwind uwtable
define void @freeParseProg(ptr noundef captures(address_is_null) %0) local_unnamed_addr #0 {
  %.not = icmp eq ptr %0, null
  br i1 %.not, label %32, label %2

2:                                                ; preds = %1
  %3 = getelementptr inbounds nuw i8, ptr %0, i64 24
  %4 = load ptr, ptr %3, align 8, !tbaa !25
  tail call void @free(ptr noundef %4) #16
  %5 = getelementptr inbounds nuw i8, ptr %0, i64 32
  %6 = getelementptr i8, ptr %0, i64 48
  %.val23.i = load i64, ptr %6, align 8, !tbaa !21
  %.not.i = icmp eq i64 %.val23.i, 0
  br i1 %.not.i, label %freeBlocks.exit, label %.lr.ph.i

.lr.ph.i:                                         ; preds = %2
  %7 = getelementptr inbounds nuw i8, ptr %0, i64 40
  %8 = getelementptr inbounds nuw i8, ptr %0, i64 56
  br label %9

9:                                                ; preds = %case_infos_free.exit12.i, %.lr.ph.i
  %.024.i = phi i64 [ 0, %.lr.ph.i ], [ %24, %case_infos_free.exit12.i ]
  %10 = load ptr, ptr %5, align 8, !tbaa !24, !noalias !26
  %11 = load i64, ptr %7, align 8, !tbaa !23, !noalias !26
  %12 = add i64 %11, %.024.i
  %13 = load i64, ptr %8, align 8, !tbaa !22, !noalias !26
  %14 = urem i64 %12, %13
  %15 = getelementptr inbounds nuw %struct.parse_block, ptr %10, i64 %14
  %.sroa.3.0..sroa_idx.i = getelementptr inbounds nuw i8, ptr %15, i64 8
  %.sroa.3.0.copyload.i = load ptr, ptr %.sroa.3.0..sroa_idx.i, align 8, !tbaa !14
  %.sroa.4.0..sroa_idx.i = getelementptr inbounds nuw i8, ptr %15, i64 16
  %.sroa.4.0.copyload.i = load ptr, ptr %.sroa.4.0..sroa_idx.i, align 8, !tbaa !19
  %.sroa.7.0..sroa_idx.i = getelementptr inbounds nuw i8, ptr %15, i64 24
  %.sroa.7.0.copyload.i = load i64, ptr %.sroa.7.0..sroa_idx.i, align 8, !tbaa !20
  %.sroa.9.0..sroa_idx.i = getelementptr inbounds nuw i8, ptr %15, i64 32
  %.sroa.9.0.copyload.i = load i64, ptr %.sroa.9.0..sroa_idx.i, align 8, !tbaa !20
  %.sroa.11.0..sroa_idx.i = getelementptr inbounds nuw i8, ptr %15, i64 40
  %.sroa.11.0.copyload.i = load i64, ptr %.sroa.11.0..sroa_idx.i, align 8, !tbaa !20
  %.sroa.12.0..sroa_idx.i = getelementptr inbounds nuw i8, ptr %15, i64 48
  %.sroa.12.0.copyload.i = load ptr, ptr %.sroa.12.0..sroa_idx.i, align 8, !tbaa !19
  %.sroa.15.0..sroa_idx.i = getelementptr inbounds nuw i8, ptr %15, i64 56
  %.sroa.15.0.copyload.i = load i64, ptr %.sroa.15.0..sroa_idx.i, align 8, !tbaa !20
  %.sroa.17.0..sroa_idx.i = getelementptr inbounds nuw i8, ptr %15, i64 64
  %.sroa.17.0.copyload.i = load i64, ptr %.sroa.17.0..sroa_idx.i, align 8, !tbaa !20
  %.sroa.19.0..sroa_idx.i = getelementptr inbounds nuw i8, ptr %15, i64 72
  %.sroa.19.0.copyload.i = load i64, ptr %.sroa.19.0..sroa_idx.i, align 8, !tbaa !20
  tail call void @free(ptr noundef %.sroa.3.0.copyload.i) #16
  %.not.i.i.i = icmp eq i64 %.sroa.9.0.copyload.i, 0
  br i1 %.not.i.i.i, label %case_infos_free.exit.i, label %.lr.ph.i.i.i

.lr.ph.i.i.i:                                     ; preds = %9, %.lr.ph.i.i.i
  %.08.i.i.i = phi i64 [ %19, %.lr.ph.i.i.i ], [ 0, %9 ]
  %16 = add i64 %.08.i.i.i, %.sroa.7.0.copyload.i
  %17 = urem i64 %16, %.sroa.11.0.copyload.i
  %18 = getelementptr inbounds nuw %struct.case_info, ptr %.sroa.4.0.copyload.i, i64 %17
  %.sroa.1.0..sroa_idx.i.i.i = getelementptr inbounds nuw i8, ptr %18, i64 8
  %.sroa.1.0.copyload.i.i.i = load ptr, ptr %.sroa.1.0..sroa_idx.i.i.i, align 8, !tbaa !14
  %.sroa.27.0..sroa_idx.i.i.i = getelementptr inbounds nuw i8, ptr %18, i64 24
  %.sroa.27.0.copyload.i.i.i = load ptr, ptr %.sroa.27.0..sroa_idx.i.i.i, align 8, !tbaa !14
  tail call void @free(ptr noundef %.sroa.1.0.copyload.i.i.i) #16
  tail call void @free(ptr noundef %.sroa.27.0.copyload.i.i.i) #16
  %19 = add nuw i64 %.08.i.i.i, 1
  %exitcond.not.i = icmp eq i64 %19, %.sroa.9.0.copyload.i
  br i1 %exitcond.not.i, label %case_infos_free.exit.i, label %.lr.ph.i.i.i, !llvm.loop !29

case_infos_free.exit.i:                           ; preds = %.lr.ph.i.i.i, %9
  tail call void @free(ptr noundef %.sroa.4.0.copyload.i) #16
  %.not.i.i5.i = icmp eq i64 %.sroa.17.0.copyload.i, 0
  br i1 %.not.i.i5.i, label %case_infos_free.exit12.i, label %.lr.ph.i.i6.i

.lr.ph.i.i6.i:                                    ; preds = %case_infos_free.exit.i, %.lr.ph.i.i6.i
  %.08.i.i7.i = phi i64 [ %23, %.lr.ph.i.i6.i ], [ 0, %case_infos_free.exit.i ]
  %20 = add i64 %.08.i.i7.i, %.sroa.15.0.copyload.i
  %21 = urem i64 %20, %.sroa.19.0.copyload.i
  %22 = getelementptr inbounds nuw %struct.case_info, ptr %.sroa.12.0.copyload.i, i64 %21
  %.sroa.1.0..sroa_idx.i.i8.i = getelementptr inbounds nuw i8, ptr %22, i64 8
  %.sroa.1.0.copyload.i.i9.i = load ptr, ptr %.sroa.1.0..sroa_idx.i.i8.i, align 8, !tbaa !14
  %.sroa.27.0..sroa_idx.i.i10.i = getelementptr inbounds nuw i8, ptr %22, i64 24
  %.sroa.27.0.copyload.i.i11.i = load ptr, ptr %.sroa.27.0..sroa_idx.i.i10.i, align 8, !tbaa !14
  tail call void @free(ptr noundef %.sroa.1.0.copyload.i.i9.i) #16
  tail call void @free(ptr noundef %.sroa.27.0.copyload.i.i11.i) #16
  %23 = add nuw i64 %.08.i.i7.i, 1
  %exitcond25.not.i = icmp eq i64 %23, %.sroa.17.0.copyload.i
  br i1 %exitcond25.not.i, label %case_infos_free.exit12.i, label %.lr.ph.i.i6.i, !llvm.loop !29

case_infos_free.exit12.i:                         ; preds = %.lr.ph.i.i6.i, %case_infos_free.exit.i
  tail call void @free(ptr noundef %.sroa.12.0.copyload.i) #16
  %24 = add nuw i64 %.024.i, 1
  %.val.i = load i64, ptr %6, align 8, !tbaa !21
  %25 = icmp ult i64 %24, %.val.i
  br i1 %25, label %9, label %freeBlocks.exit, !llvm.loop !30

freeBlocks.exit:                                  ; preds = %case_infos_free.exit12.i, %2
  %26 = getelementptr inbounds nuw i8, ptr %0, i64 40
  tail call void @llvm.memset.p0.i64(ptr noundef nonnull align 8 dereferenceable(16) %26, i8 0, i64 16, i1 false)
  %27 = load ptr, ptr %5, align 8, !tbaa !24
  tail call void @free(ptr noundef %27) #16
  tail call void @llvm.memset.p0.i64(ptr noundef nonnull align 8 dereferenceable(32) %5, i8 0, i64 32, i1 false)
  %28 = getelementptr inbounds nuw i8, ptr %0, i64 64
  %29 = load ptr, ptr %28, align 8, !tbaa !31
  tail call void @free(ptr noundef %29) #16
  %30 = getelementptr inbounds nuw i8, ptr %0, i64 72
  %31 = load ptr, ptr %30, align 8, !tbaa !32
  tail call void @free(ptr noundef %31) #16
  tail call void @free(ptr noundef nonnull %0) #16
  br label %32

32:                                               ; preds = %1, %freeBlocks.exit
  ret void
}